target datalayout = "e-m:e-p270:32:32-p271:32:32-p272:64:64-i64:64-i128:128-f80:128-n8:16:32:64-S128"
target triple = "x86_64-pc-linux-gnu"

%struct.AVFilterPad = type { ptr, i32, i32, %union.anon, ptr, ptr, ptr }
%union.anon = type { ptr }
%struct.AVFilterContext = type { ptr, ptr, ptr, ptr, ptr, i32, ptr, ptr, i32, ptr, ptr, i32, i32, ptr, ptr, ptr, ptr, i32, ptr, i32, i32 }
%struct.AVFilter = type { ptr, ptr, ptr, ptr, ptr, i32 }
%struct.InterleaveContext = type { ptr, i32, i32, i64 }

@.str.19 = private unnamed_addr constant [8 x i8] c"input%d\00", align 1
@.str.20 = private unnamed_addr constant [30 x i8] c"Assertion %s failed at %s:%d\0A\00", align 1
@.str.21 = private unnamed_addr constant [2 x i8] c"0\00", align 1
@.str.22 = private unnamed_addr constant [27 x i8] c"libavfilter/f_interleave.c\00", align 1

; Function Attrs: cold nounwind optsize uwtable
define internal i32 @init(ptr noundef %0) #0 {
  %2 = alloca i32, align 4
  %3 = alloca ptr, align 8
  %4 = alloca ptr, align 8
  %5 = alloca ptr, align 8
  %6 = alloca i32, align 4
  %7 = alloca i32, align 4
  %8 = alloca %struct.AVFilterPad, align 8
  %9 = alloca i32, align 4
  store ptr %0, ptr %3, align 8, !tbaa !4
  call void @llvm.lifetime.start.p0(i64 8, ptr %4) #9
  %10 = load ptr, ptr %3, align 8, !tbaa !4
  %11 = getelementptr inbounds nuw %struct.AVFilterContext, ptr %10, i32 0, i32 9
  %12 = load ptr, ptr %11, align 8, !tbaa !9
  store ptr %12, ptr %4, align 8, !tbaa !22
  call void @llvm.lifetime.start.p0(i64 8, ptr %5) #9
  %13 = load ptr, ptr %3, align 8, !tbaa !4
  %14 = getelementptr inbounds nuw %struct.AVFilterContext, ptr %13, i32 0, i32 1
  %15 = load ptr, ptr %14, align 8, !tbaa !24
  %16 = getelementptr inbounds nuw %struct.AVFilter, ptr %15, i32 0, i32 3
  %17 = load ptr, ptr %16, align 8, !tbaa !25
  %18 = getelementptr inbounds %struct.AVFilterPad, ptr %17, i64 0
  store ptr %18, ptr %5, align 8, !tbaa !27
  call void @llvm.lifetime.start.p0(i64 4, ptr %6) #9
  call void @llvm.lifetime.start.p0(i64 4, ptr %7) #9
  store i32 0, ptr %6, align 4, !tbaa !28
  br label %19

19:                                               ; preds = %59, %1
  %20 = load i32, ptr %6, align 4, !tbaa !28
  %21 = load ptr, ptr %4, align 8, !tbaa !22
  %22 = getelementptr inbounds nuw %struct.InterleaveContext, ptr %21, i32 0, i32 1
  %23 = load i32, ptr %22, align 8, !tbaa !29
  %24 = icmp slt i32 %20, %23
  br i1 %24, label %25, label %62

25:                                               ; preds = %19
  call void @llvm.lifetime.start.p0(i64 48, ptr %8) #9
  call void @llvm.memset.p0.i64(ptr align 8 %8, i8 0, i64 48, i1 false)
  %26 = load i32, ptr %6, align 4, !tbaa !28
  %27 = call ptr (ptr, ...) @av_asprintf(ptr noundef @.str.19, i32 noundef %26)
  %28 = getelementptr inbounds nuw %struct.AVFilterPad, ptr %8, i32 0, i32 0
  store ptr %27, ptr %28, align 8, !tbaa !32
  %29 = getelementptr inbounds nuw %struct.AVFilterPad, ptr %8, i32 0, i32 0
  %30 = load ptr, ptr %29, align 8, !tbaa !32
  %31 = icmp ne ptr %30, null
  br i1 %31, label %33, label %32

32:                                               ; preds = %25
  store i32 -12, ptr %2, align 4
  store i32 1, ptr %9, align 4
  br label %56

33:                                               ; preds = %25
  %34 = load ptr, ptr %5, align 8, !tbaa !27
  %35 = getelementptr inbounds nuw %struct.AVFilterPad, ptr %34, i32 0, i32 1
  %36 = load i32, ptr %35, align 8, !tbaa !34
  %37 = getelementptr inbounds nuw %struct.AVFilterPad, ptr %8, i32 0, i32 1
  store i32 %36, ptr %37, align 8, !tbaa !34
  %38 = load ptr, ptr %5, align 8, !tbaa !27
  %39 = getelementptr inbounds nuw %struct.AVFilterPad, ptr %38, i32 0, i32 1
  %40 = load i32, ptr %39, align 8, !tbaa !34
  switch i32 %40, label %45 [
    i32 0, label %41
    i32 1, label %43
  ]

41:                                               ; preds = %33
  %42 = getelementptr inbounds nuw %struct.AVFilterPad, ptr %8, i32 0, i32 3
  store ptr @ff_null_get_video_buffer, ptr %42, align 8, !tbaa !35
  br label %49

43:                                               ; preds = %33
  %44 = getelementptr inbounds nuw %struct.AVFilterPad, ptr %8, i32 0, i32 3
  store ptr @ff_null_get_audio_buffer, ptr %44, align 8, !tbaa !35
  br label %49

45:                                               ; preds = %33
  br label %46

46:                                               ; preds = %45
  call void (ptr, i32, ptr, ...) @av_log(ptr noundef null, i32 noundef 0, ptr noundef @.str.20, ptr noundef @.str.21, ptr noundef @.str.22, i32 noundef 174)
  call void @abort() #10
  unreachable

47:                                               ; No predecessors!
  br label %48

48:                                               ; preds = %47
  br label %49

49:                                               ; preds = %48, %43, %41
  %50 = load ptr, ptr %3, align 8, !tbaa !4
  %51 = call i32 @ff_append_inpad_free_name(ptr noundef %50, ptr noundef %8)
  store i32 %51, ptr %7, align 4, !tbaa !28
  %52 = icmp slt i32 %51, 0
  br i1 %52, label %53, label %55

53:                                               ; preds = %49
  %54 = load i32, ptr %7, align 4, !tbaa !28
  store i32 %54, ptr %2, align 4
  store i32 1, ptr %9, align 4
  br label %56

55:                                               ; preds = %49
  store i32 0, ptr %9, align 4
  br label %56

56:                                               ; preds = %55, %53, %32
  call void @llvm.lifetime.end.p0(i64 48, ptr %8) #9
  %57 = load i32, ptr %9, align 4
  switch i32 %57, label %63 [
    i32 0, label %58
  ]

58:                                               ; preds = %56
  br label %59

59:                                               ; preds = %58
  %60 = load i32, ptr %6, align 4, !tbaa !28
  %61 = add nsw i32 %60, 1
  store i32 %61, ptr %6, align 4, !tbaa !28
  br label %19, !llvm.loop !36

62:                                               ; preds = %19
  store i32 0, ptr %2, align 4
  store i32 1, ptr %9, align 4
  br label %63

63:                                               ; preds = %62, %56
  call void @llvm.lifetime.end.p0(i64 4, ptr %7) #9
  call void @llvm.lifetime.end.p0(i64 4, ptr %6) #9
  call void @llvm.lifetime.end.p0(i64 8, ptr %5) #9
  call void @llvm.lifetime.end.p0(i64 8, ptr %4) #9
  %64 = load i32, ptr %2, align 4
  ret i32 %64
}