; Function Attrs: cold nounwind optsize uwtable
define internal range(i32 -2147483648, 1) i32 @init(ptr noundef %0) #0 {
  %2 = alloca %struct.AVFilterPad, align 8
  %3 = getelementptr inbounds nuw i8, ptr %0, i64 72
  %4 = load ptr, ptr %3, align 8, !tbaa !4
  %5 = getelementptr inbounds nuw i8, ptr %4, i64 8
  %6 = load i32, ptr %5, align 8, !tbaa !20
  %7 = icmp sgt i32 %6, 0
  br i1 %7, label %.lr.ph, label %.loopexit

.lr.ph:                                           ; preds = %1
  %8 = getelementptr inbounds nuw i8, ptr %0, i64 8
  %9 = load ptr, ptr %8, align 8, !tbaa !23
  %10 = getelementptr inbounds nuw i8, ptr %9, i64 24
  %11 = load ptr, ptr %10, align 8, !tbaa !24
  %12 = getelementptr inbounds nuw i8, ptr %11, i64 8
  %13 = getelementptr inbounds nuw i8, ptr %2, i64 8
  %14 = getelementptr inbounds nuw i8, ptr %2, i64 16
  br label %19

15:                                               ; preds = %25
  %16 = add nuw nsw i32 %.01216, 1
  %17 = load i32, ptr %5, align 8, !tbaa !20
  %18 = icmp slt i32 %16, %17
  br i1 %18, label %19, label %.loopexit, !llvm.loop !26

19:                                               ; preds = %.lr.ph, %15
  %.01216 = phi i32 [ 0, %.lr.ph ], [ %16, %15 ]
  call void @llvm.lifetime.start.p0(i64 48, ptr nonnull %2) #8
  call void @llvm.memset.p0.i64(ptr noundef nonnull align 8 dereferenceable(48) %2, i8 0, i64 48, i1 false)
  %20 = call ptr (ptr, ...) @av_asprintf(ptr noundef nonnull @.str.19, i32 noundef %.01216) #8
  store ptr %20, ptr %2, align 8, !tbaa !28
  %.not = icmp eq ptr %20, null
  br i1 %.not, label %.thread, label %21

.thread:                                          ; preds = %19
  call void @llvm.lifetime.end.p0(i64 48, ptr nonnull %2) #8
  br label %.loopexit

21:                                               ; preds = %19
  %22 = load i32, ptr %12, align 8, !tbaa !30
  store i32 %22, ptr %13, align 8, !tbaa !30
  switch i32 %22, label %24 [
    i32 0, label %25
    i32 1, label %23
  ]

23:                                               ; preds = %21
  br label %25

24:                                               ; preds = %21
  call void (ptr, i32, ptr, ...) @av_log(ptr noundef null, i32 noundef 0, ptr noundef nonnull @.str.20, ptr noundef nonnull @.str.21, ptr noundef nonnull @.str.22, i32 noundef 174) #8
  call void @abort() #9
  unreachable

25:                                               ; preds = %21, %23
  %storemerge = phi ptr [ @ff_null_get_audio_buffer, %23 ], [ @ff_null_get_video_buffer, %21 ]
  store ptr %storemerge, ptr %14, align 8, !tbaa !31
  %26 = call i32 @ff_append_inpad_free_name(ptr noundef %0, ptr noundef nonnull %2) #8
  %27 = icmp sgt i32 %26, -1
  call void @llvm.lifetime.end.p0(i64 48, ptr nonnull %2) #8
  br i1 %27, label %15, label %.loopexit

.loopexit:                                        ; preds = %25, %15, %1, %.thread
  %.2 = phi i32 [ -12, %.thread ], [ 0, %1 ], [ %26, %25 ], [ 0, %15 ]
  ret i32 %.2
}